target datalayout = "e-m:e-p270:32:32-p271:32:32-p272:64:64-i64:64-i128:128-f80:128-n8:16:32:64-S128"
target triple = "x86_64-pc-linux-gnu"

%struct.FT_ListRec_ = type { ptr, ptr }
%struct.FT_CharMapRec_ = type { ptr, i32, i16, i16 }
%struct.T42_FaceRec_ = type { %struct.FT_FaceRec_, %struct.T1_FontRec_, ptr, ptr, ptr, i64, ptr, [2 x %struct.FT_CharMapRec_], [2 x ptr], %struct.PS_UnicodesRec_ }
%struct.FT_FaceRec_ = type { i64, i64, i64, i64, i64, ptr, ptr, i32, ptr, i32, ptr, %struct.FT_Generic_, %struct.FT_BBox_, i16, i16, i16, i16, i16, i16, i16, i16, ptr, ptr, ptr, ptr, ptr, ptr, %struct.FT_ListRec_, %struct.FT_Generic_, ptr, ptr }
%struct.FT_BBox_ = type { i64, i64, i64, i64 }
%struct.FT_Generic_ = type { ptr, ptr }
%struct.T1_FontRec_ = type { %struct.PS_FontInfoRec_, %struct.PS_FontExtraRec_, %struct.PS_PrivateRec_, ptr, i32, %struct.T1_EncodingRecRec_, ptr, ptr, ptr, i32, ptr, ptr, ptr, i32, ptr, ptr, ptr, i8, i8, %struct.FT_Matrix_, %struct.FT_Vector_, %struct.FT_BBox_, i64, i64 }
%struct.PS_FontInfoRec_ = type { ptr, ptr, ptr, ptr, ptr, i64, i8, i16, i16 }
%struct.PS_FontExtraRec_ = type { i16 }
%struct.PS_PrivateRec_ = type { i32, i32, i8, i8, i8, i8, [14 x i16], [10 x i16], [14 x i16], [10 x i16], i64, i32, i32, [1 x i16], [1 x i16], i8, i8, i8, i8, [13 x i16], [13 x i16], i64, i64, i64, [2 x i16] }
%struct.T1_EncodingRecRec_ = type { i32, i32, i32, ptr, ptr }
%struct.FT_Matrix_ = type { i64, i64, i64, i64 }
%struct.FT_Vector_ = type { i64, i64 }
%struct.PS_UnicodesRec_ = type { %struct.FT_CMapRec_, i32, ptr }
%struct.FT_CMapRec_ = type { %struct.FT_CharMapRec_, ptr }
%struct.T42_Loader_ = type { %struct.T42_ParserRec_, i32, %struct.PS_TableRec_, i32, %struct.PS_TableRec_, %struct.PS_TableRec_, %struct.PS_TableRec_ }
%struct.T42_ParserRec_ = type { %struct.PS_ParserRec_, ptr, ptr, i64, i8 }
%struct.PS_ParserRec_ = type { ptr, ptr, ptr, i32, ptr, %struct.PS_Parser_FuncsRec_ }
%struct.PS_Parser_FuncsRec_ = type { ptr, ptr, ptr, ptr, ptr, ptr, ptr, ptr, ptr, ptr, ptr, ptr, ptr }
%struct.PS_TableRec_ = type { ptr, i64, i64, i64, i32, ptr, ptr, ptr, %struct.PS_Table_FuncsRec_ }
%struct.PS_Table_FuncsRec_ = type { ptr, ptr, ptr, ptr }

; Function Attrs: nounwind uwtable
define internal void @t42_parse_font_matrix(ptr noundef %0, ptr noundef %1) #0 {
  %3 = alloca ptr, align 8
  %4 = alloca ptr, align 8
  %5 = alloca ptr, align 8
  %6 = alloca ptr, align 8
  %7 = alloca ptr, align 8
  %8 = alloca ptr, align 8
  %9 = alloca ptr, align 8
  %10 = alloca [6 x i64], align 16
  %11 = alloca i64, align 8
  %12 = alloca i32, align 4
  %13 = alloca i32, align 4
  store ptr %0, ptr %3, align 8, !tbaa !27
  store ptr %1, ptr %4, align 8, !tbaa !71
  call void @llvm.lifetime.start.p0(i64 8, ptr %5) #7
  %14 = load ptr, ptr %3, align 8, !tbaa !27
  store ptr %14, ptr %5, align 8, !tbaa !33
  call void @llvm.lifetime.start.p0(i64 8, ptr %6) #7
  %15 = load ptr, ptr %4, align 8, !tbaa !71
  store ptr %15, ptr %6, align 8, !tbaa !242
  call void @llvm.lifetime.start.p0(i64 8, ptr %7) #7
  %16 = load ptr, ptr %6, align 8, !tbaa !242
  %17 = getelementptr inbounds nuw %struct.T42_Loader_, ptr %16, i32 0, i32 0
  store ptr %17, ptr %7, align 8, !tbaa !215
  call void @llvm.lifetime.start.p0(i64 8, ptr %8) #7
  %18 = load ptr, ptr %5, align 8, !tbaa !33
  %19 = getelementptr inbounds nuw %struct.T42_FaceRec_, ptr %18, i32 0, i32 1
  %20 = getelementptr inbounds nuw %struct.T1_FontRec_, ptr %19, i32 0, i32 19
  store ptr %20, ptr %8, align 8, !tbaa !283
  call void @llvm.lifetime.start.p0(i64 8, ptr %9) #7
  %21 = load ptr, ptr %5, align 8, !tbaa !33
  %22 = getelementptr inbounds nuw %struct.T42_FaceRec_, ptr %21, i32 0, i32 1
  %23 = getelementptr inbounds nuw %struct.T1_FontRec_, ptr %22, i32 0, i32 20
  store ptr %23, ptr %9, align 8, !tbaa !195
  call void @llvm.lifetime.start.p0(i64 48, ptr %10) #7
  call void @llvm.lifetime.start.p0(i64 8, ptr %11) #7
  call void @llvm.lifetime.start.p0(i64 4, ptr %12) #7
  %24 = load ptr, ptr %7, align 8, !tbaa !215
  %25 = getelementptr inbounds nuw %struct.T42_ParserRec_, ptr %24, i32 0, i32 0
  %26 = getelementptr inbounds nuw %struct.PS_ParserRec_, ptr %25, i32 0, i32 5
  %27 = getelementptr inbounds nuw %struct.PS_Parser_FuncsRec_, ptr %26, i32 0, i32 8
  %28 = load ptr, ptr %27, align 8, !tbaa !285
  %29 = load ptr, ptr %7, align 8, !tbaa !215
  %30 = getelementptr inbounds nuw %struct.T42_ParserRec_, ptr %29, i32 0, i32 0
  %31 = getelementptr inbounds [6 x i64], ptr %10, i64 0, i64 0
  %32 = call i32 %28(ptr noundef %30, i32 noundef 6, ptr noundef %31, i32 noundef 0)
  store i32 %32, ptr %12, align 4, !tbaa !29
  %33 = load i32, ptr %12, align 4, !tbaa !29
  %34 = icmp slt i32 %33, 6
  br i1 %34, label %35, label %39

35:                                               ; preds = %2
  %36 = load ptr, ptr %7, align 8, !tbaa !215
  %37 = getelementptr inbounds nuw %struct.T42_ParserRec_, ptr %36, i32 0, i32 0
  %38 = getelementptr inbounds nuw %struct.PS_ParserRec_, ptr %37, i32 0, i32 3
  store i32 3, ptr %38, align 8, !tbaa !259
  store i32 1, ptr %13, align 4
  br label %133

39:                                               ; preds = %2
  %40 = getelementptr inbounds [6 x i64], ptr %10, i64 0, i64 3
  %41 = load i64, ptr %40, align 8, !tbaa !106
  %42 = icmp slt i64 %41, 0
  br i1 %42, label %43, label %47

43:                                               ; preds = %39
  %44 = getelementptr inbounds [6 x i64], ptr %10, i64 0, i64 3
  %45 = load i64, ptr %44, align 8, !tbaa !106
  %46 = sub nsw i64 0, %45
  br label %50

47:                                               ; preds = %39
  %48 = getelementptr inbounds [6 x i64], ptr %10, i64 0, i64 3
  %49 = load i64, ptr %48, align 8, !tbaa !106
  br label %50

50:                                               ; preds = %47, %43
  %51 = phi i64 [ %46, %43 ], [ %49, %47 ]
  store i64 %51, ptr %11, align 8, !tbaa !106
  %52 = load i64, ptr %11, align 8, !tbaa !106
  %53 = icmp eq i64 %52, 0
  br i1 %53, label %54, label %61

54:                                               ; preds = %50
  br label %55

55:                                               ; preds = %54
  br label %56

56:                                               ; preds = %55
  br label %57

57:                                               ; preds = %56
  %58 = load ptr, ptr %7, align 8, !tbaa !215
  %59 = getelementptr inbounds nuw %struct.T42_ParserRec_, ptr %58, i32 0, i32 0
  %60 = getelementptr inbounds nuw %struct.PS_ParserRec_, ptr %59, i32 0, i32 3
  store i32 3, ptr %60, align 8, !tbaa !259
  store i32 1, ptr %13, align 4
  br label %133

61:                                               ; preds = %50
  %62 = load i64, ptr %11, align 8, !tbaa !106
  %63 = icmp ne i64 %62, 65536
  br i1 %63, label %64, label %95

64:                                               ; preds = %61
  %65 = getelementptr inbounds [6 x i64], ptr %10, i64 0, i64 0
  %66 = load i64, ptr %65, align 16, !tbaa !106
  %67 = load i64, ptr %11, align 8, !tbaa !106
  %68 = call i64 @FT_DivFix(i64 noundef %66, i64 noundef %67)
  %69 = getelementptr inbounds [6 x i64], ptr %10, i64 0, i64 0
  store i64 %68, ptr %69, align 16, !tbaa !106
  %70 = getelementptr inbounds [6 x i64], ptr %10, i64 0, i64 1
  %71 = load i64, ptr %70, align 8, !tbaa !106
  %72 = load i64, ptr %11, align 8, !tbaa !106
  %73 = call i64 @FT_DivFix(i64 noundef %71, i64 noundef %72)
  %74 = getelementptr inbounds [6 x i64], ptr %10, i64 0, i64 1
  store i64 %73, ptr %74, align 8, !tbaa !106
  %75 = getelementptr inbounds [6 x i64], ptr %10, i64 0, i64 2
  %76 = load i64, ptr %75, align 16, !tbaa !106
  %77 = load i64, ptr %11, align 8, !tbaa !106
  %78 = call i64 @FT_DivFix(i64 noundef %76, i64 noundef %77)
  %79 = getelementptr inbounds [6 x i64], ptr %10, i64 0, i64 2
  store i64 %78, ptr %79, align 16, !tbaa !106
  %80 = getelementptr inbounds [6 x i64], ptr %10, i64 0, i64 4
  %81 = load i64, ptr %80, align 16, !tbaa !106
  %82 = load i64, ptr %11, align 8, !tbaa !106
  %83 = call i64 @FT_DivFix(i64 noundef %81, i64 noundef %82)
  %84 = getelementptr inbounds [6 x i64], ptr %10, i64 0, i64 4
  store i64 %83, ptr %84, align 16, !tbaa !106
  %85 = getelementptr inbounds [6 x i64], ptr %10, i64 0, i64 5
  %86 = load i64, ptr %85, align 8, !tbaa !106
  %87 = load i64, ptr %11, align 8, !tbaa !106
  %88 = call i64 @FT_DivFix(i64 noundef %86, i64 noundef %87)
  %89 = getelementptr inbounds [6 x i64], ptr %10, i64 0, i64 5
  store i64 %88, ptr %89, align 8, !tbaa !106
  %90 = getelementptr inbounds [6 x i64], ptr %10, i64 0, i64 3
  %91 = load i64, ptr %90, align 8, !tbaa !106
  %92 = icmp slt i64 %91, 0
  %93 = select i1 %92, i64 -65536, i64 65536
  %94 = getelementptr inbounds [6 x i64], ptr %10, i64 0, i64 3
  store i64 %93, ptr %94, align 8, !tbaa !106
  br label %95

95:                                               ; preds = %64, %61
  %96 = getelementptr inbounds [6 x i64], ptr %10, i64 0, i64 0
  %97 = load i64, ptr %96, align 16, !tbaa !106
  %98 = load ptr, ptr %8, align 8, !tbaa !283
  %99 = getelementptr inbounds nuw %struct.FT_Matrix_, ptr %98, i32 0, i32 0
  store i64 %97, ptr %99, align 8, !tbaa !286
  %100 = getelementptr inbounds [6 x i64], ptr %10, i64 0, i64 1
  %101 = load i64, ptr %100, align 8, !tbaa !106
  %102 = load ptr, ptr %8, align 8, !tbaa !283
  %103 = getelementptr inbounds nuw %struct.FT_Matrix_, ptr %102, i32 0, i32 2
  store i64 %101, ptr %103, align 8, !tbaa !287
  %104 = getelementptr inbounds [6 x i64], ptr %10, i64 0, i64 2
  %105 = load i64, ptr %104, align 16, !tbaa !106
  %106 = load ptr, ptr %8, align 8, !tbaa !283
  %107 = getelementptr inbounds nuw %struct.FT_Matrix_, ptr %106, i32 0, i32 1
  store i64 %105, ptr %107, align 8, !tbaa !288
  %108 = getelementptr inbounds [6 x i64], ptr %10, i64 0, i64 3
  %109 = load i64, ptr %108, align 8, !tbaa !106
  %110 = load ptr, ptr %8, align 8, !tbaa !283
  %111 = getelementptr inbounds nuw %struct.FT_Matrix_, ptr %110, i32 0, i32 3
  store i64 %109, ptr %111, align 8, !tbaa !289
  %112 = load ptr, ptr %8, align 8, !tbaa !283
  %113 = call zeroext i8 @FT_Matrix_Check(ptr noundef %112)
  %114 = icmp ne i8 %113, 0
  br i1 %114, label %122, label %115

115:                                              ; preds = %95
  br label %116

116:                                              ; preds = %115
  br label %117

117:                                              ; preds = %116
  br label %118

118:                                              ; preds = %117
  %119 = load ptr, ptr %7, align 8, !tbaa !215
  %120 = getelementptr inbounds nuw %struct.T42_ParserRec_, ptr %119, i32 0, i32 0
  %121 = getelementptr inbounds nuw %struct.PS_ParserRec_, ptr %120, i32 0, i32 3
  store i32 3, ptr %121, align 8, !tbaa !259
  store i32 1, ptr %13, align 4
  br label %133

122:                                              ; preds = %95
  %123 = getelementptr inbounds [6 x i64], ptr %10, i64 0, i64 4
  %124 = load i64, ptr %123, align 16, !tbaa !106
  %125 = ashr i64 %124, 16
  %126 = load ptr, ptr %9, align 8, !tbaa !195
  %127 = getelementptr inbounds nuw %struct.FT_Vector_, ptr %126, i32 0, i32 0
  store i64 %125, ptr %127, align 8, !tbaa !290
  %128 = getelementptr inbounds [6 x i64], ptr %10, i64 0, i64 5
  %129 = load i64, ptr %128, align 8, !tbaa !106
  %130 = ashr i64 %129, 16
  %131 = load ptr, ptr %9, align 8, !tbaa !195
  %132 = getelementptr inbounds nuw %struct.FT_Vector_, ptr %131, i32 0, i32 1
  store i64 %130, ptr %132, align 8, !tbaa !291
  store i32 0, ptr %13, align 4
  br label %133

133:                                              ; preds = %122, %118, %57, %35
  call void @llvm.lifetime.end.p0(i64 4, ptr %12) #7
  call void @llvm.lifetime.end.p0(i64 8, ptr %11) #7
  call void @llvm.lifetime.end.p0(i64 48, ptr %10) #7
  call void @llvm.lifetime.end.p0(i64 8, ptr %9) #7
  call void @llvm.lifetime.end.p0(i64 8, ptr %8) #7
  call void @llvm.lifetime.end.p0(i64 8, ptr %7) #7
  call void @llvm.lifetime.end.p0(i64 8, ptr %6) #7
  call void @llvm.lifetime.end.p0(i64 8, ptr %5) #7
  %134 = load i32, ptr %13, align 4
  switch i32 %134, label %136 [
    i32 0, label %135
    i32 1, label %135
  ]

135:                                              ; preds = %133, %133
  ret void

136:                                              ; preds = %133
  unreachable
}