; Function Attrs: nounwind uwtable
define internal void @t42_parse_font_matrix(ptr noundef %0, ptr noundef %1) #0 {
  %3 = alloca [6 x i64], align 16
  %4 = getelementptr inbounds nuw i8, ptr %0, i64 680
  %5 = getelementptr inbounds nuw i8, ptr %0, i64 712
  call void @llvm.lifetime.start.p0(i64 48, ptr nonnull %3) #13
  %6 = getelementptr inbounds nuw i8, ptr %1, i64 104
  %7 = load ptr, ptr %6, align 8, !tbaa !243
  %8 = call i32 %7(ptr noundef %1, i32 noundef 6, ptr noundef nonnull %3, i32 noundef 0) #13
  %9 = icmp slt i32 %8, 6
  br i1 %9, label %10, label %12

10:                                               ; preds = %2
  %11 = getelementptr inbounds nuw i8, ptr %1, i64 24
  store i32 3, ptr %11, align 8, !tbaa !87
  br label %59

12:                                               ; preds = %2
  %13 = getelementptr inbounds nuw i8, ptr %3, i64 24
  %14 = load i64, ptr %13, align 8, !tbaa !169
  %15 = call i64 @llvm.abs.i64(i64 %14, i1 true)
  %16 = icmp eq i64 %14, 0
  br i1 %16, label %17, label %19

17:                                               ; preds = %12
  %18 = getelementptr inbounds nuw i8, ptr %1, i64 24
  store i32 3, ptr %18, align 8, !tbaa !87
  br label %59

19:                                               ; preds = %12
  %.not = icmp eq i64 %15, 65536
  br i1 %.not, label %38, label %20

20:                                               ; preds = %19
  %21 = load i64, ptr %3, align 16, !tbaa !169
  %22 = call i64 @FT_DivFix(i64 noundef %21, i64 noundef %15) #13
  store i64 %22, ptr %3, align 16, !tbaa !169
  %23 = getelementptr inbounds nuw i8, ptr %3, i64 8
  %24 = load i64, ptr %23, align 8, !tbaa !169
  %25 = call i64 @FT_DivFix(i64 noundef %24, i64 noundef %15) #13
  store i64 %25, ptr %23, align 8, !tbaa !169
  %26 = getelementptr inbounds nuw i8, ptr %3, i64 16
  %27 = load i64, ptr %26, align 16, !tbaa !169
  %28 = call i64 @FT_DivFix(i64 noundef %27, i64 noundef %15) #13
  store i64 %28, ptr %26, align 16, !tbaa !169
  %29 = getelementptr inbounds nuw i8, ptr %3, i64 32
  %30 = load i64, ptr %29, align 16, !tbaa !169
  %31 = call i64 @FT_DivFix(i64 noundef %30, i64 noundef %15) #13
  store i64 %31, ptr %29, align 16, !tbaa !169
  %32 = getelementptr inbounds nuw i8, ptr %3, i64 40
  %33 = load i64, ptr %32, align 8, !tbaa !169
  %34 = call i64 @FT_DivFix(i64 noundef %33, i64 noundef %15) #13
  store i64 %34, ptr %32, align 8, !tbaa !169
  %35 = load i64, ptr %13, align 8, !tbaa !169
  %36 = icmp slt i64 %35, 0
  %37 = select i1 %36, i64 -65536, i64 65536
  store i64 %37, ptr %13, align 8, !tbaa !169
  br label %38

38:                                               ; preds = %20, %19
  %39 = phi i64 [ %37, %20 ], [ %14, %19 ]
  %40 = load i64, ptr %3, align 16, !tbaa !169
  store i64 %40, ptr %4, align 8, !tbaa !244
  %41 = getelementptr inbounds nuw i8, ptr %3, i64 8
  %42 = load i64, ptr %41, align 8, !tbaa !169
  %43 = getelementptr inbounds nuw i8, ptr %0, i64 696
  store i64 %42, ptr %43, align 8, !tbaa !245
  %44 = getelementptr inbounds nuw i8, ptr %3, i64 16
  %45 = load i64, ptr %44, align 16, !tbaa !169
  %46 = getelementptr inbounds nuw i8, ptr %0, i64 688
  store i64 %45, ptr %46, align 8, !tbaa !246
  %47 = getelementptr inbounds nuw i8, ptr %0, i64 704
  store i64 %39, ptr %47, align 8, !tbaa !247
  %48 = call zeroext i8 @FT_Matrix_Check(ptr noundef nonnull %4) #13
  %.not24 = icmp eq i8 %48, 0
  br i1 %.not24, label %49, label %51

49:                                               ; preds = %38
  %50 = getelementptr inbounds nuw i8, ptr %1, i64 24
  store i32 3, ptr %50, align 8, !tbaa !87
  br label %59

51:                                               ; preds = %38
  %52 = getelementptr inbounds nuw i8, ptr %3, i64 32
  %53 = load i64, ptr %52, align 16, !tbaa !169
  %54 = ashr i64 %53, 16
  store i64 %54, ptr %5, align 8, !tbaa !248
  %55 = getelementptr inbounds nuw i8, ptr %3, i64 40
  %56 = load i64, ptr %55, align 8, !tbaa !169
  %57 = ashr i64 %56, 16
  %58 = getelementptr inbounds nuw i8, ptr %0, i64 720
  store i64 %57, ptr %58, align 8, !tbaa !249
  br label %59

59:                                               ; preds = %51, %49, %17, %10
  call void @llvm.lifetime.end.p0(i64 48, ptr nonnull %3) #13
  ret void
}